target datalayout = "e-m:e-p270:32:32-p271:32:32-p272:64:64-i64:64-i128:128-f80:128-n8:16:32:64-S128"
target triple = "x86_64-pc-linux-gnu"

@.str.82 = private unnamed_addr constant [4 x i8] c"SUN\00", align 1
@.str.83 = private unnamed_addr constant [4 x i8] c"MON\00", align 1
@.str.84 = private unnamed_addr constant [4 x i8] c"TUE\00", align 1
@.str.85 = private unnamed_addr constant [4 x i8] c"WED\00", align 1
@.str.86 = private unnamed_addr constant [4 x i8] c"THU\00", align 1
@.str.87 = private unnamed_addr constant [4 x i8] c"FRI\00", align 1
@.str.88 = private unnamed_addr constant [4 x i8] c"SAT\00", align 1

; Function Attrs: nounwind uwtable
define internal i32 @print_int_named_day(ptr noundef %0, i64 noundef %1) #0 {
  %3 = alloca i32, align 4
  %4 = alloca ptr, align 8
  %5 = alloca i64, align 8
  store ptr %0, ptr %4, align 8, !tbaa !56
  store i64 %1, ptr %5, align 8, !tbaa !10
  %6 = load i64, ptr %5, align 8, !tbaa !10
  switch i64 %6, label %28 [
    i64 1, label %7
    i64 2, label %10
    i64 3, label %13
    i64 4, label %16
    i64 5, label %19
    i64 6, label %22
    i64 7, label %25
  ]

7:                                                ; preds = %2
  %8 = load ptr, ptr %4, align 8, !tbaa !56
  %9 = call i32 @BIO_puts(ptr noundef %8, ptr noundef @.str.82)
  store i32 %9, ptr %3, align 4
  br label %29

10:                                               ; preds = %2
  %11 = load ptr, ptr %4, align 8, !tbaa !56
  %12 = call i32 @BIO_puts(ptr noundef %11, ptr noundef @.str.83)
  store i32 %12, ptr %3, align 4
  br label %29

13:                                               ; preds = %2
  %14 = load ptr, ptr %4, align 8, !tbaa !56
  %15 = call i32 @BIO_puts(ptr noundef %14, ptr noundef @.str.84)
  store i32 %15, ptr %3, align 4
  br label %29

16:                                               ; preds = %2
  %17 = load ptr, ptr %4, align 8, !tbaa !56
  %18 = call i32 @BIO_puts(ptr noundef %17, ptr noundef @.str.85)
  store i32 %18, ptr %3, align 4
  br label %29

19:                                               ; preds = %2
  %20 = load ptr, ptr %4, align 8, !tbaa !56
  %21 = call i32 @BIO_puts(ptr noundef %20, ptr noundef @.str.86)
  store i32 %21, ptr %3, align 4
  br label %29

22:                                               ; preds = %2
  %23 = load ptr, ptr %4, align 8, !tbaa !56
  %24 = call i32 @BIO_puts(ptr noundef %23, ptr noundef @.str.87)
  store i32 %24, ptr %3, align 4
  br label %29

25:                                               ; preds = %2
  %26 = load ptr, ptr %4, align 8, !tbaa !56
  %27 = call i32 @BIO_puts(ptr noundef %26, ptr noundef @.str.88)
  store i32 %27, ptr %3, align 4
  br label %29

28:                                               ; preds = %2
  store i32 0, ptr %3, align 4
  br label %29

29:                                               ; preds = %28, %25, %22, %19, %16, %13, %10, %7
  %30 = load i32, ptr %3, align 4
  ret i32 %30
}