; Function Attrs: nounwind uwtable
define internal fastcc i32 @print_int_named_day(ptr noundef %0, i64 noundef %1) unnamed_addr #1 {
  %switch.tableidx = add i64 %1, -1
  %3 = icmp ult i64 %switch.tableidx, 7
  br i1 %3, label %switch.lookup, label %5

switch.lookup:                                    ; preds = %2
  %switch.gep = getelementptr inbounds nuw [7 x ptr], ptr @switch.table.print_int_named_day, i64 0, i64 %switch.tableidx
  %switch.load = load ptr, ptr %switch.gep, align 8
  %4 = tail call i32 @BIO_puts(ptr noundef %0, ptr noundef nonnull %switch.load) #4
  br label %5

5:                                                ; preds = %2, %switch.lookup
  %.0 = phi i32 [ 0, %2 ], [ %4, %switch.lookup ]
  ret i32 %.0
}